target datalayout = "e-m:e-p270:32:32-p271:32:32-p272:64:64-i64:64-i128:128-f80:128-n8:16:32:64-S128"
target triple = "x86_64-pc-linux-gnu"

%struct.timeval = type { i64, i64 }
%union.pthread_mutex_t = type { %struct.__pthread_mutex_s }
%struct.__pthread_mutex_s = type { i32, i32, i32, i32, i32, i16, i16, %struct.__pthread_internal_list }
%struct.__pthread_internal_list = type { ptr, ptr }
%struct.event = type { %struct.event_callback, %union.anon.1, i32, ptr, %union.anon.3, i16, i16, %struct.timeval }
%struct.event_callback = type { %struct.anon.0, i16, i8, i8, %union.anon, ptr }
%struct.anon.0 = type { ptr, ptr }
%union.anon = type { ptr }
%union.anon.1 = type { %struct.anon.2 }
%struct.anon.2 = type { ptr, ptr }
%union.anon.3 = type { %struct.anon.4 }
%struct.anon.4 = type { %struct.anon.5, %struct.timeval }
%struct.anon.5 = type { ptr, ptr }
%struct.conn = type { ptr, i32, i8, i8, i8, i8, i8, i8, i8, i8, ptr, i32, i32, i32, %struct.event, i16, i16, ptr, ptr, i32, i32, ptr, ptr, ptr, i32, ptr, i32, i32, i32, i32, i32, i32, i32, %struct.sockaddr_in6, i32, i8, %struct.anon.9, %union.protocol_binary_request_header, i64, i64, i16, i32, i32, ptr, ptr, ptr, ptr, ptr, ptr }
%struct.sockaddr_in6 = type { i16, i16, i32, %struct.in6_addr, i32 }
%struct.in6_addr = type { %union.anon.8 }
%union.anon.8 = type { [4 x i32] }
%struct.anon.9 = type { ptr, i64, i64 }
%union.protocol_binary_request_header = type { %struct.anon.10 }
%struct.anon.10 = type { i8, i8, i16, i8, i8, i16, i32, i32, i64 }
%struct.LIBEVENT_THREAD = type { i64, ptr, %struct.thread_notify, %struct.thread_notify, %union.pthread_mutex_t, %struct.iop_head_s, i32, i32, i32, %struct.thread_stats, [3 x %struct.io_queue_s], ptr, ptr, ptr, ptr, ptr, ptr, ptr, i32 }
%struct.thread_notify = type { %struct.event, i32 }
%struct.iop_head_s = type { ptr, ptr }
%struct.thread_stats = type { %union.pthread_mutex_t, i64, i64, i64, i64, i64, i64, i64, i64, i64, i64, i64, i64, i64, i64, i64, i64, i64, i64, i64, i64, i64, i64, i64, i64, i64, i64, i64, i64, i64, i64, [64 x %struct.slab_stats], [256 x i64], i64, i64, i64 }
%struct.slab_stats = type { i64, i64, i64, i64, i64, i64, i64, i64 }
%struct.io_queue_s = type { ptr, %struct.iop_head_s, ptr, i32 }
%struct._mc_resp = type { ptr, ptr, i32, i32, ptr, ptr, ptr, [4 x %struct.iovec], i32, i8, i8, i8, i8, i8, i16, i16, i16, %struct.sockaddr_in6, i32, [1024 x i8] }
%struct.iovec = type { ptr, i64 }

; Function Attrs: nounwind uwtable
define dso_local ptr @resp_start_unlinked(ptr noundef %0) #0 {
  %2 = alloca ptr, align 8
  %3 = alloca ptr, align 8
  %4 = alloca ptr, align 8
  %5 = alloca i32, align 4
  store ptr %0, ptr %3, align 8, !tbaa !10
  call void @llvm.lifetime.start.p0(i64 8, ptr %4) #15
  %6 = load ptr, ptr %3, align 8, !tbaa !10
  %7 = call ptr @resp_allocate(ptr noundef %6)
  store ptr %7, ptr %4, align 8, !tbaa !132
  %8 = load ptr, ptr %4, align 8, !tbaa !132
  %9 = icmp ne ptr %8, null
  br i1 %9, label %30, label %10

10:                                               ; preds = %1
  %11 = load ptr, ptr %3, align 8, !tbaa !10
  %12 = getelementptr inbounds nuw %struct.conn, ptr %11, i32 0, i32 44
  %13 = load ptr, ptr %12, align 8, !tbaa !32
  %14 = getelementptr inbounds nuw %struct.LIBEVENT_THREAD, ptr %13, i32 0, i32 9
  %15 = getelementptr inbounds nuw %struct.thread_stats, ptr %14, i32 0, i32 0
  %16 = call i32 @pthread_mutex_lock(ptr noundef %15) #15
  %17 = load ptr, ptr %3, align 8, !tbaa !10
  %18 = getelementptr inbounds nuw %struct.conn, ptr %17, i32 0, i32 44
  %19 = load ptr, ptr %18, align 8, !tbaa !32
  %20 = getelementptr inbounds nuw %struct.LIBEVENT_THREAD, ptr %19, i32 0, i32 9
  %21 = getelementptr inbounds nuw %struct.thread_stats, ptr %20, i32 0, i32 19
  %22 = load i64, ptr %21, align 8, !tbaa !162
  %23 = add i64 %22, 1
  store i64 %23, ptr %21, align 8, !tbaa !162
  %24 = load ptr, ptr %3, align 8, !tbaa !10
  %25 = getelementptr inbounds nuw %struct.conn, ptr %24, i32 0, i32 44
  %26 = load ptr, ptr %25, align 8, !tbaa !32
  %27 = getelementptr inbounds nuw %struct.LIBEVENT_THREAD, ptr %26, i32 0, i32 9
  %28 = getelementptr inbounds nuw %struct.thread_stats, ptr %27, i32 0, i32 0
  %29 = call i32 @pthread_mutex_unlock(ptr noundef %28) #15
  store ptr null, ptr %2, align 8
  store i32 1, ptr %5, align 4
  br label %78

30:                                               ; preds = %1
  %31 = load ptr, ptr %3, align 8, !tbaa !10
  %32 = getelementptr inbounds nuw %struct.conn, ptr %31, i32 0, i32 44
  %33 = load ptr, ptr %32, align 8, !tbaa !32
  %34 = getelementptr inbounds nuw %struct.LIBEVENT_THREAD, ptr %33, i32 0, i32 9
  %35 = getelementptr inbounds nuw %struct.thread_stats, ptr %34, i32 0, i32 0
  %36 = call i32 @pthread_mutex_lock(ptr noundef %35) #15
  %37 = load ptr, ptr %3, align 8, !tbaa !10
  %38 = getelementptr inbounds nuw %struct.conn, ptr %37, i32 0, i32 44
  %39 = load ptr, ptr %38, align 8, !tbaa !32
  %40 = getelementptr inbounds nuw %struct.LIBEVENT_THREAD, ptr %39, i32 0, i32 9
  %41 = getelementptr inbounds nuw %struct.thread_stats, ptr %40, i32 0, i32 20
  %42 = load i64, ptr %41, align 8, !tbaa !161
  %43 = add i64 %42, 1
  store i64 %43, ptr %41, align 8, !tbaa !161
  %44 = load ptr, ptr %3, align 8, !tbaa !10
  %45 = getelementptr inbounds nuw %struct.conn, ptr %44, i32 0, i32 44
  %46 = load ptr, ptr %45, align 8, !tbaa !32
  %47 = getelementptr inbounds nuw %struct.LIBEVENT_THREAD, ptr %46, i32 0, i32 9
  %48 = getelementptr inbounds nuw %struct.thread_stats, ptr %47, i32 0, i32 0
  %49 = call i32 @pthread_mutex_unlock(ptr noundef %48) #15
  %50 = load ptr, ptr %3, align 8, !tbaa !10
  %51 = getelementptr inbounds nuw %struct.conn, ptr %50, i32 0, i32 30
  %52 = load i32, ptr %51, align 8, !tbaa !69
  %53 = icmp eq i32 %52, 2
  br i1 %53, label %54, label %76

54:                                               ; preds = %30
  %55 = load ptr, ptr %3, align 8, !tbaa !10
  %56 = getelementptr inbounds nuw %struct.conn, ptr %55, i32 0, i32 32
  %57 = load i32, ptr %56, align 8, !tbaa !163
  %58 = trunc i32 %57 to i16
  %59 = load ptr, ptr %3, align 8, !tbaa !10
  %60 = getelementptr inbounds nuw %struct.conn, ptr %59, i32 0, i32 21
  %61 = load ptr, ptr %60, align 8, !tbaa !136
  %62 = getelementptr inbounds nuw %struct._mc_resp, ptr %61, i32 0, i32 14
  store i16 %58, ptr %62, align 2, !tbaa !164
  %63 = load ptr, ptr %3, align 8, !tbaa !10
  %64 = getelementptr inbounds nuw %struct.conn, ptr %63, i32 0, i32 21
  %65 = load ptr, ptr %64, align 8, !tbaa !136
  %66 = getelementptr inbounds nuw %struct._mc_resp, ptr %65, i32 0, i32 17
  %67 = load ptr, ptr %3, align 8, !tbaa !10
  %68 = getelementptr inbounds nuw %struct.conn, ptr %67, i32 0, i32 33
  call void @llvm.memcpy.p0.p0.i64(ptr align 8 %66, ptr align 4 %68, i64 28, i1 false), !tbaa.struct !165
  %69 = load ptr, ptr %3, align 8, !tbaa !10
  %70 = getelementptr inbounds nuw %struct.conn, ptr %69, i32 0, i32 34
  %71 = load i32, ptr %70, align 8, !tbaa !116
  %72 = load ptr, ptr %3, align 8, !tbaa !10
  %73 = getelementptr inbounds nuw %struct.conn, ptr %72, i32 0, i32 21
  %74 = load ptr, ptr %73, align 8, !tbaa !136
  %75 = getelementptr inbounds nuw %struct._mc_resp, ptr %74, i32 0, i32 18
  store i32 %71, ptr %75, align 4, !tbaa !166
  br label %76

76:                                               ; preds = %54, %30
  %77 = load ptr, ptr %4, align 8, !tbaa !132
  store ptr %77, ptr %2, align 8
  store i32 1, ptr %5, align 4
  br label %78

78:                                               ; preds = %76, %10
  call void @llvm.lifetime.end.p0(i64 8, ptr %4) #15
  %79 = load ptr, ptr %2, align 8
  ret ptr %79
}