; Function Attrs: nounwind uwtable
define dso_local ptr @resp_start_unlinked(ptr noundef readonly captures(none) %0) local_unnamed_addr #1 {
  %2 = getelementptr i8, ptr %0, i64 400
  %.val = load ptr, ptr %2, align 8, !tbaa !30
  %3 = tail call fastcc ptr @resp_allocate(ptr %.val)
  %.not = icmp eq ptr %3, null
  %4 = load ptr, ptr %2, align 8, !tbaa !30
  %5 = getelementptr inbounds nuw i8, ptr %4, i64 360
  %6 = tail call i32 @pthread_mutex_lock(ptr noundef nonnull %5) #34
  %7 = load ptr, ptr %2, align 8, !tbaa !30
  %8 = getelementptr inbounds nuw i8, ptr %7, i64 360
  br i1 %.not, label %9, label %14

9:                                                ; preds = %1
  %10 = getelementptr inbounds nuw i8, ptr %7, i64 544
  %11 = load i64, ptr %10, align 8, !tbaa !170
  %12 = add i64 %11, 1
  store i64 %12, ptr %10, align 8, !tbaa !170
  %13 = tail call i32 @pthread_mutex_unlock(ptr noundef nonnull %8) #34
  br label %35

14:                                               ; preds = %1
  %15 = getelementptr inbounds nuw i8, ptr %7, i64 552
  %16 = load i64, ptr %15, align 8, !tbaa !169
  %17 = add i64 %16, 1
  store i64 %17, ptr %15, align 8, !tbaa !169
  %18 = tail call i32 @pthread_mutex_unlock(ptr noundef nonnull %8) #34
  %19 = getelementptr inbounds nuw i8, ptr %0, i64 264
  %20 = load i32, ptr %19, align 8, !tbaa !65
  %21 = icmp eq i32 %20, 2
  br i1 %21, label %22, label %35

22:                                               ; preds = %14
  %23 = getelementptr inbounds nuw i8, ptr %0, i64 272
  %24 = load i32, ptr %23, align 8, !tbaa !77
  %25 = trunc i32 %24 to i16
  %26 = getelementptr inbounds nuw i8, ptr %0, i64 208
  %27 = load ptr, ptr %26, align 8, !tbaa !118
  %28 = getelementptr inbounds nuw i8, ptr %27, i64 122
  store i16 %25, ptr %28, align 2, !tbaa !127
  %29 = getelementptr inbounds nuw i8, ptr %27, i64 128
  %30 = getelementptr inbounds nuw i8, ptr %0, i64 276
  tail call void @llvm.memcpy.p0.p0.i64(ptr noundef nonnull align 8 dereferenceable(28) %29, ptr noundef nonnull align 4 dereferenceable(28) %30, i64 28, i1 false), !tbaa.struct !171
  %31 = getelementptr inbounds nuw i8, ptr %0, i64 304
  %32 = load i32, ptr %31, align 8, !tbaa !75
  %33 = load ptr, ptr %26, align 8, !tbaa !118
  %34 = getelementptr inbounds nuw i8, ptr %33, i64 156
  store i32 %32, ptr %34, align 4, !tbaa !120
  br label %35

35:                                               ; preds = %14, %22, %9
  ret ptr %3
}